(dp0
S'info'
p1
(lp2
(dp3
S'wind_avg_speed'
p4
I10
sS'wind_avg_dir'
p5
VESE
p6
sS'dew'
p7
I19
sS'high'
p8
I23
sS'pressure'
p9
I1012
sS'low'
p10
I19
sS'humidity_l'
p11
I84
sS'humidity_h'
p12
I95
sS'event'
p13
V\u96e8
p14
sa(dp15
g4
I5
sg5
VESE
p16
sg7
I19
sg8
I26
sg9
I1012
sg10
I19
sg11
I71
sg12
I96
sg13
g14
sa(dp17
g4
I11
sg5
VENE
p18
sg7
I18
sg8
I22
sg9
I1010
sg10
I18
sg11
I84
sg12
I97
sg13
g14
sasS'hour'
p19
I10
sS'year'
p20
I2014
sS'day'
p21
I31
sS'minute'
p22
I55
sS'month'
p23
I8
s.